target datalayout = "e-m:e-p270:32:32-p271:32:32-p272:64:64-i64:64-i128:128-f80:128-n8:16:32:64-S128"
target triple = "x86_64-pc-linux-gnu"

@.str.1 = private unnamed_addr constant [60 x i8] c"src/java.instrument/share/native/libinstrument/JPLISAgent.c\00", align 1
@.str.42 = private unnamed_addr constant [26 x i8] c"isSafeForJNICalls(jnienv)\00", align 1
@.str.43 = private unnamed_addr constant [37 x i8] c"!isUnchecked(jnienv, throwableToMap)\00", align 1
@.str.44 = private unnamed_addr constant [33 x i8] c"java/lang/ClassNotFoundException\00", align 1
@.str.45 = private unnamed_addr constant [48 x i8] c"java/lang/instrument/UnmodifiableClassException\00", align 1

; Function Attrs: nounwind uwtable
define hidden ptr @redefineClassMapper(ptr noundef %0, ptr noundef %1) #0 {
  %3 = alloca ptr, align 8
  %4 = alloca ptr, align 8
  %5 = alloca ptr, align 8
  %6 = alloca ptr, align 8
  store ptr %0, ptr %3, align 8
  store ptr %1, ptr %4, align 8
  store ptr null, ptr %5, align 8
  %7 = load ptr, ptr %3, align 8
  %8 = call zeroext i8 @isSafeForJNICalls(ptr noundef %7)
  call void @JPLISAssertCondition(i8 noundef zeroext %8, ptr noundef @.str.42, ptr noundef @.str.1, i32 noundef 953)
  %9 = load ptr, ptr %3, align 8
  %10 = load ptr, ptr %4, align 8
  %11 = call zeroext i8 @isUnchecked(ptr noundef %9, ptr noundef %10)
  %12 = icmp ne i8 %11, 0
  %13 = xor i1 %12, true
  %14 = zext i1 %13 to i32
  %15 = trunc i32 %14 to i8
  call void @JPLISAssertCondition(i8 noundef zeroext %15, ptr noundef @.str.43, ptr noundef @.str.1, i32 noundef 954)
  %16 = load ptr, ptr %3, align 8
  %17 = load ptr, ptr %4, align 8
  %18 = call zeroext i8 @isInstanceofClassName(ptr noundef %16, ptr noundef %17, ptr noundef @.str.44)
  %19 = icmp ne i8 %18, 0
  br i1 %19, label %20, label %22

20:                                               ; preds = %2
  %21 = load ptr, ptr %4, align 8
  store ptr %21, ptr %5, align 8
  br label %37

22:                                               ; preds = %2
  %23 = load ptr, ptr %3, align 8
  %24 = load ptr, ptr %4, align 8
  %25 = call zeroext i8 @isInstanceofClassName(ptr noundef %23, ptr noundef %24, ptr noundef @.str.45)
  %26 = icmp ne i8 %25, 0
  br i1 %26, label %27, label %29

27:                                               ; preds = %22
  %28 = load ptr, ptr %4, align 8
  store ptr %28, ptr %5, align 8
  br label %36

29:                                               ; preds = %22
  store ptr null, ptr %6, align 8
  %30 = load ptr, ptr %3, align 8
  %31 = load ptr, ptr %4, align 8
  %32 = call ptr @getMessageFromThrowable(ptr noundef %30, ptr noundef %31)
  store ptr %32, ptr %6, align 8
  %33 = load ptr, ptr %3, align 8
  %34 = load ptr, ptr %6, align 8
  %35 = call ptr @createInternalError(ptr noundef %33, ptr noundef %34)
  store ptr %35, ptr %5, align 8
  br label %36

36:                                               ; preds = %29, %27
  br label %37

37:                                               ; preds = %36, %20
  %38 = load ptr, ptr %3, align 8
  %39 = call zeroext i8 @isSafeForJNICalls(ptr noundef %38)
  call void @JPLISAssertCondition(i8 noundef zeroext %39, ptr noundef @.str.42, ptr noundef @.str.1, i32 noundef 973)
  %40 = load ptr, ptr %5, align 8
  ret ptr %40
}