; Function Attrs: nounwind uwtable
define hidden ptr @redefineClassMapper(ptr noundef %0, ptr noundef %1) #0 {
  %3 = tail call zeroext i8 @isSafeForJNICalls(ptr noundef %0) #10
  tail call void @JPLISAssertCondition(i8 noundef zeroext %3, ptr noundef nonnull @.str.42, ptr noundef nonnull @.str.1, i32 noundef 953) #10
  %4 = tail call zeroext i8 @isUnchecked(ptr noundef %0, ptr noundef %1) #10
  %.not = icmp eq i8 %4, 0
  %5 = zext i1 %.not to i8
  tail call void @JPLISAssertCondition(i8 noundef zeroext %5, ptr noundef nonnull @.str.43, ptr noundef nonnull @.str.1, i32 noundef 954) #10
  %6 = tail call zeroext i8 @isInstanceofClassName(ptr noundef %0, ptr noundef %1, ptr noundef nonnull @.str.44) #10
  %.not15 = icmp eq i8 %6, 0
  br i1 %.not15, label %7, label %12

7:                                                ; preds = %2
  %8 = tail call zeroext i8 @isInstanceofClassName(ptr noundef %0, ptr noundef %1, ptr noundef nonnull @.str.45) #10
  %.not16 = icmp eq i8 %8, 0
  br i1 %.not16, label %9, label %12

9:                                                ; preds = %7
  %10 = tail call ptr @getMessageFromThrowable(ptr noundef %0, ptr noundef %1) #10
  %11 = tail call ptr @createInternalError(ptr noundef %0, ptr noundef %10) #10
  br label %12

12:                                               ; preds = %7, %2, %9
  %.0 = phi ptr [ %11, %9 ], [ %1, %2 ], [ %1, %7 ]
  %13 = tail call zeroext i8 @isSafeForJNICalls(ptr noundef %0) #10
  tail call void @JPLISAssertCondition(i8 noundef zeroext %13, ptr noundef nonnull @.str.42, ptr noundef nonnull @.str.1, i32 noundef 973) #10
  ret ptr %.0
}